; Function Attrs: nounwind uwtable
define void @Gla_ManCollectFanins(ptr noundef readonly captures(none) %0, ptr noundef readonly captures(none) %1, i32 noundef %2, ptr noundef captures(none) initializes((4, 8)) %3) local_unnamed_addr #0 {
  %5 = getelementptr inbounds nuw i8, ptr %0, i64 80
  %6 = load ptr, ptr %5, align 8, !tbaa !121
  %7 = getelementptr inbounds nuw i8, ptr %6, i64 48
  %8 = load ptr, ptr %7, align 8, !tbaa !122
  %9 = load i32, ptr %1, align 8, !tbaa !24
  %10 = sext i32 %9 to i64
  %11 = getelementptr inbounds i32, ptr %8, i64 %10
  %12 = load i32, ptr %11, align 4, !tbaa !22
  %13 = getelementptr inbounds nuw i8, ptr %6, i64 40
  %14 = load ptr, ptr %13, align 8, !tbaa !125
  %15 = getelementptr inbounds i32, ptr %14, i64 %10
  %16 = load i32, ptr %15, align 4, !tbaa !22
  %17 = getelementptr inbounds nuw i8, ptr %3, i64 4
  store i32 0, ptr %17, align 4, !tbaa !3
  %18 = icmp sgt i32 %12, 0
  br i1 %18, label %.lr.ph23, label %._crit_edge

.lr.ph23:                                         ; preds = %4
  %19 = add nsw i32 %16, %12
  %20 = getelementptr inbounds nuw i8, ptr %3, i64 8
  %21 = sext i32 %16 to i64
  %22 = sext i32 %19 to i64
  br label %26

.loopexit:                                        ; preds = %Vec_IntPushUnique.exit, %26
  %23 = phi ptr [ %27, %26 ], [ %75, %Vec_IntPushUnique.exit ]
  %24 = phi ptr [ %28, %26 ], [ %75, %Vec_IntPushUnique.exit ]
  %25 = icmp slt i64 %indvars.iv.next, %22
  br i1 %25, label %26, label %._crit_edge.loopexit, !llvm.loop !126

26:                                               ; preds = %.lr.ph23, %.loopexit
  %27 = phi ptr [ %6, %.lr.ph23 ], [ %23, %.loopexit ]
  %28 = phi ptr [ %6, %.lr.ph23 ], [ %24, %.loopexit ]
  %indvars.iv = phi i64 [ %21, %.lr.ph23 ], [ %indvars.iv.next, %.loopexit ]
  %29 = getelementptr inbounds nuw i8, ptr %28, i64 24
  %30 = load ptr, ptr %29, align 8, !tbaa !127
  %31 = getelementptr inbounds ptr, ptr %30, i64 %indvars.iv
  %32 = load ptr, ptr %31, align 8, !tbaa !128
  %indvars.iv.next = add nsw i64 %indvars.iv, 1
  %33 = getelementptr inbounds ptr, ptr %30, i64 %indvars.iv.next
  %34 = load ptr, ptr %33, align 8, !tbaa !128
  %35 = icmp ult ptr %32, %34
  br i1 %35, label %.lr.ph, label %.loopexit

.lr.ph:                                           ; preds = %26, %Vec_IntPushUnique.exit
  %36 = phi ptr [ %75, %Vec_IntPushUnique.exit ], [ %27, %26 ]
  %.021 = phi ptr [ %76, %Vec_IntPushUnique.exit ], [ %32, %26 ]
  %37 = load i32, ptr %.021, align 4, !tbaa !22
  %38 = ashr i32 %37, 1
  %.not = icmp eq i32 %38, %2
  br i1 %.not, label %Vec_IntPushUnique.exit, label %39

39:                                               ; preds = %.lr.ph
  %40 = load i32, ptr %17, align 4, !tbaa !3
  %41 = icmp sgt i32 %40, 0
  br i1 %41, label %.lr.ph.i, label %._crit_edge.i

.lr.ph.i:                                         ; preds = %39
  %42 = load ptr, ptr %20, align 8, !tbaa !11
  %wide.trip.count.i = zext nneg i32 %40 to i64
  br label %44

43:                                               ; preds = %44
  %indvars.iv.next.i = add nuw nsw i64 %indvars.iv.i, 1
  %exitcond.not.i = icmp eq i64 %indvars.iv.next.i, %wide.trip.count.i
  br i1 %exitcond.not.i, label %._crit_edge.i, label %44, !llvm.loop !129

44:                                               ; preds = %43, %.lr.ph.i
  %indvars.iv.i = phi i64 [ 0, %.lr.ph.i ], [ %indvars.iv.next.i, %43 ]
  %45 = getelementptr inbounds nuw i32, ptr %42, i64 %indvars.iv.i
  %46 = load i32, ptr %45, align 4, !tbaa !22
  %47 = icmp eq i32 %46, %38
  br i1 %47, label %Vec_IntPushUnique.exit, label %43

._crit_edge.i:                                    ; preds = %43, %39
  %48 = load i32, ptr %3, align 8, !tbaa !10
  %49 = icmp eq i32 %40, %48
  br i1 %49, label %50, label %.Vec_IntGrow.exit10_crit_edge.i.i

.Vec_IntGrow.exit10_crit_edge.i.i:                ; preds = %._crit_edge.i
  %.pre.i.i = load ptr, ptr %20, align 8, !tbaa !11
  br label %Vec_IntPush.exit.i

50:                                               ; preds = %._crit_edge.i
  %51 = icmp slt i32 %40, 16
  br i1 %51, label %52, label %59

52:                                               ; preds = %50
  %53 = load ptr, ptr %20, align 8, !tbaa !11
  %.not9.i.i.i = icmp eq ptr %53, null
  br i1 %.not9.i.i.i, label %56, label %54

54:                                               ; preds = %52
  %55 = tail call dereferenceable_or_null(64) ptr @realloc(ptr noundef nonnull %53, i64 noundef 64) #28
  br label %Vec_IntGrow.exit.i.i

56:                                               ; preds = %52
  %57 = tail call noalias dereferenceable_or_null(64) ptr @malloc(i64 noundef 64) #27
  br label %Vec_IntGrow.exit.i.i

Vec_IntGrow.exit.i.i:                             ; preds = %56, %54
  %58 = phi ptr [ %55, %54 ], [ %57, %56 ]
  store ptr %58, ptr %20, align 8, !tbaa !11
  store i32 16, ptr %3, align 8, !tbaa !10
  br label %Vec_IntPush.exit.i

59:                                               ; preds = %50
  %60 = shl nuw nsw i32 %40, 1
  %61 = load ptr, ptr %20, align 8, !tbaa !11
  %.not9.i9.i.i = icmp eq ptr %61, null
  %62 = zext nneg i32 %60 to i64
  %63 = shl nuw nsw i64 %62, 2
  br i1 %.not9.i9.i.i, label %66, label %64

64:                                               ; preds = %59
  %65 = tail call ptr @realloc(ptr noundef nonnull %61, i64 noundef %63) #28
  br label %68

66:                                               ; preds = %59
  %67 = tail call noalias ptr @malloc(i64 noundef %63) #27
  br label %68

68:                                               ; preds = %66, %64
  %69 = phi ptr [ %65, %64 ], [ %67, %66 ]
  store ptr %69, ptr %20, align 8, !tbaa !11
  store i32 %60, ptr %3, align 8, !tbaa !10
  br label %Vec_IntPush.exit.i

Vec_IntPush.exit.i:                               ; preds = %68, %Vec_IntGrow.exit.i.i, %.Vec_IntGrow.exit10_crit_edge.i.i
  %70 = phi ptr [ %.pre.i.i, %.Vec_IntGrow.exit10_crit_edge.i.i ], [ %69, %68 ], [ %58, %Vec_IntGrow.exit.i.i ]
  %71 = load i32, ptr %17, align 4, !tbaa !3
  %72 = add nsw i32 %71, 1
  store i32 %72, ptr %17, align 4, !tbaa !3
  %73 = sext i32 %71 to i64
  %74 = getelementptr inbounds i32, ptr %70, i64 %73
  store i32 %38, ptr %74, align 4, !tbaa !22
  %.pre = load ptr, ptr %5, align 8, !tbaa !121
  br label %Vec_IntPushUnique.exit

Vec_IntPushUnique.exit:                           ; preds = %44, %Vec_IntPush.exit.i, %.lr.ph
  %75 = phi ptr [ %.pre, %Vec_IntPush.exit.i ], [ %36, %.lr.ph ], [ %36, %44 ]
  %76 = getelementptr inbounds nuw i8, ptr %.021, i64 4
  %77 = getelementptr inbounds nuw i8, ptr %75, i64 24
  %78 = load ptr, ptr %77, align 8, !tbaa !127
  %79 = getelementptr inbounds ptr, ptr %78, i64 %indvars.iv.next
  %80 = load ptr, ptr %79, align 8, !tbaa !128
  %81 = icmp ult ptr %76, %80
  br i1 %81, label %.lr.ph, label %.loopexit, !llvm.loop !130

._crit_edge.loopexit:                             ; preds = %.loopexit
  %.pre25 = load i32, ptr %17, align 4, !tbaa !3
  %82 = sext i32 %.pre25 to i64
  br label %._crit_edge

._crit_edge:                                      ; preds = %._crit_edge.loopexit, %4
  %83 = phi i64 [ %82, %._crit_edge.loopexit ], [ 0, %4 ]
  %84 = getelementptr inbounds nuw i8, ptr %3, i64 8
  %85 = load ptr, ptr %84, align 8, !tbaa !11
  tail call void @qsort(ptr noundef %85, i64 noundef %83, i64 noundef 4, ptr noundef nonnull @Vec_IntSortCompare1) #29
  ret void
}